target datalayout = "e-m:e-p270:32:32-p271:32:32-p272:64:64-i64:64-i128:128-f80:128-n8:16:32:64-S128"
target triple = "x86_64-pc-linux-gnu"

@errMsgBuffer = global [1024 x i8] zeroinitializer, align 16

; Function Attrs: nounwind uwtable
define void @validateFileOpened(i32 noundef %0, ptr noundef %1, ptr noundef %2) #0 {
  %4 = alloca i32, align 4
  %5 = alloca ptr, align 8
  %6 = alloca ptr, align 8
  store i32 %0, ptr %4, align 4, !tbaa !9
  store ptr %1, ptr %5, align 8, !tbaa !4
  store ptr %2, ptr %6, align 8, !tbaa !4
  %7 = load i32, ptr %4, align 4, !tbaa !9
  %8 = icmp ne i32 %7, 0
  br i1 %8, label %14, label %9

9:                                                ; preds = %3
  %10 = load ptr, ptr getelementptr inbounds ([92 x ptr], ptr @errorMessages, i64 0, i64 29), align 8, !tbaa !4
  %11 = load ptr, ptr %5, align 8, !tbaa !4
  %12 = call i32 (ptr, ptr, ...) @sprintf(ptr noundef @errMsgBuffer, ptr noundef %10, ptr noundef %11) #7
  %13 = load ptr, ptr %6, align 8, !tbaa !4
  call void @invalidQuESTInputError(ptr noundef @errMsgBuffer, ptr noundef %13)
  br label %14

14:                                               ; preds = %9, %3
  ret void
}