; Function Attrs: nounwind uwtable
define void @validateFileOpened(i32 noundef %0, ptr noundef %1, ptr noundef %2) local_unnamed_addr #3 {
  %.not = icmp eq i32 %0, 0
  br i1 %.not, label %4, label %6

4:                                                ; preds = %3
  %5 = tail call i32 (ptr, ptr, ...) @sprintf(ptr noundef nonnull dereferenceable(1) @errMsgBuffer, ptr noundef nonnull dereferenceable(1) @.str.31, ptr noundef %1) #14
  tail call void @invalidQuESTInputError(ptr noundef nonnull @errMsgBuffer, ptr noundef %2)
  br label %6

6:                                                ; preds = %4, %3
  ret void
}